target datalayout = "e-m:e-p270:32:32-p271:32:32-p272:64:64-i64:64-i128:128-f80:128-n8:16:32:64-S128"
target triple = "x86_64-pc-linux-gnu"

%struct.gmx_ana_pos_t = type <{ ptr, ptr, ptr, %struct.gmx_ana_indexmap_t, i32, [4 x i8] }>
%struct.gmx_ana_indexmap_t = type { i32, ptr, ptr, %struct.t_blocka, ptr, %struct.t_blocka, i8 }
%struct.t_blocka = type { i32, ptr, i32, ptr, i32, i32 }
%class.anon.0 = type { i8 }
%class.anon.2 = type { i8 }

@.str.1 = private unnamed_addr constant [128 x i8] c"generated/home/dtcxzyw/WorkSpace/Projects/compilers/llvm-opt-benchmark/bench/gromacs/gromacs/src/gromacs/selection/position.cpp\00", align 1
@.str.5 = private unnamed_addr constant [7 x i8] c"pos->v\00", align 1
@.str.6 = private unnamed_addr constant [7 x i8] c"pos->f\00", align 1
@.str.9 = private unnamed_addr constant [18 x i8] c"pos->nalloc_x > 0\00", align 1
@.str.10 = private unnamed_addr constant [37 x i8] c"No memory reserved yet for positions\00", align 1
@"__PRETTY_FUNCTION__._ZZ30gmx_ana_pos_reserve_velocitiesP13gmx_ana_pos_tENK3$_0clEv" = private unnamed_addr constant [92 x i8] c"auto gmx_ana_pos_reserve_velocities(gmx_ana_pos_t *)::(anonymous class)::operator()() const\00", align 1
@"__PRETTY_FUNCTION__._ZZ26gmx_ana_pos_reserve_forcesP13gmx_ana_pos_tENK3$_0clEv" = private unnamed_addr constant [88 x i8] c"auto gmx_ana_pos_reserve_forces(gmx_ana_pos_t *)::(anonymous class)::operator()() const\00", align 1

; Function Attrs: mustprogress uwtable
define internal void @"_ZZ26gmx_ana_pos_reserve_forcesP13gmx_ana_pos_tENK3$_0clEv"(ptr noundef nonnull align 1 dereferenceable(1) %0) #0 align 2 {
  %2 = alloca ptr, align 8
  store ptr %0, ptr %2, align 8
  call void @_ZN3gmx8internal13assertHandlerEPKcS2_S2_S2_i(ptr noundef @.str.9, ptr noundef @.str.10, ptr noundef @"__PRETTY_FUNCTION__._ZZ26gmx_ana_pos_reserve_forcesP13gmx_ana_pos_tENK3$_0clEv", ptr noundef @.str.1, i32 noundef 129) #8
  unreachable
}

; Function Attrs: mustprogress uwtable
define internal void @_ZL13gmx_snew_implIA3_fEvPKcS2_iRPT_m(ptr noundef %0, ptr noundef %1, i32 noundef %2, ptr noundef nonnull align 8 dereferenceable(8) %3, i64 noundef %4) #0 {
  %6 = alloca ptr, align 8
  %7 = alloca ptr, align 8
  %8 = alloca i32, align 4
  %9 = alloca ptr, align 8
  %10 = alloca i64, align 8
  store ptr %0, ptr %6, align 8
  store ptr %1, ptr %7, align 8
  store i32 %2, ptr %8, align 4
  store ptr %3, ptr %9, align 8
  store i64 %4, ptr %10, align 8
  %11 = load ptr, ptr %6, align 8
  %12 = load ptr, ptr %7, align 8
  %13 = load i32, ptr %8, align 4
  %14 = load i64, ptr %10, align 8
  %15 = call noundef ptr @_Z11save_callocPKcS0_imm(ptr noundef %11, ptr noundef %12, i32 noundef %13, i64 noundef %14, i64 noundef 12)
  %16 = load ptr, ptr %9, align 8
  store ptr %15, ptr %16, align 8
  ret void
}

; Function Attrs: mustprogress uwtable
define internal void @"_ZZ30gmx_ana_pos_reserve_velocitiesP13gmx_ana_pos_tENK3$_0clEv"(ptr noundef nonnull align 1 dereferenceable(1) %0) #0 align 2 {
  %2 = alloca ptr, align 8
  store ptr %0, ptr %2, align 8
  call void @_ZN3gmx8internal13assertHandlerEPKcS2_S2_S2_i(ptr noundef @.str.9, ptr noundef @.str.10, ptr noundef @"__PRETTY_FUNCTION__._ZZ30gmx_ana_pos_reserve_velocitiesP13gmx_ana_pos_tENK3$_0clEv", ptr noundef @.str.1, i32 noundef 114) #8
  unreachable
}

; Function Attrs: mustprogress uwtable
define void @_Z26gmx_ana_pos_reserve_forcesP13gmx_ana_pos_t(ptr noundef %0) #0 {
  %2 = alloca ptr, align 8
  %3 = alloca %class.anon.2, align 1
  store ptr %0, ptr %2, align 8
  %4 = load ptr, ptr %2, align 8
  %5 = getelementptr inbounds %struct.gmx_ana_pos_t, ptr %4, i32 0, i32 4
  %6 = load i32, ptr %5, align 8
  %7 = icmp sgt i32 %6, 0
  br i1 %7, label %8, label %9

8:                                                ; preds = %1
  br label %10

9:                                                ; preds = %1
  call void @"_ZZ26gmx_ana_pos_reserve_forcesP13gmx_ana_pos_tENK3$_0clEv"(ptr noundef nonnull align 1 dereferenceable(1) %3)
  br label %10

10:                                               ; preds = %9, %8
  %11 = load ptr, ptr %2, align 8
  %12 = getelementptr inbounds %struct.gmx_ana_pos_t, ptr %11, i32 0, i32 2
  %13 = load ptr, ptr %12, align 8
  %14 = icmp ne ptr %13, null
  br i1 %14, label %22, label %15

15:                                               ; preds = %10
  %16 = load ptr, ptr %2, align 8
  %17 = getelementptr inbounds %struct.gmx_ana_pos_t, ptr %16, i32 0, i32 2
  %18 = load ptr, ptr %2, align 8
  %19 = getelementptr inbounds %struct.gmx_ana_pos_t, ptr %18, i32 0, i32 4
  %20 = load i32, ptr %19, align 8
  %21 = sext i32 %20 to i64
  call void @_ZL13gmx_snew_implIA3_fEvPKcS2_iRPT_m(ptr noundef @.str.6, ptr noundef @.str.1, i32 noundef 132, ptr noundef nonnull align 8 dereferenceable(8) %17, i64 noundef %21)
  br label %22

22:                                               ; preds = %15, %10
  ret void
}

; Function Attrs: mustprogress uwtable
define void @_Z30gmx_ana_pos_reserve_velocitiesP13gmx_ana_pos_t(ptr noundef %0) #0 {
  %2 = alloca ptr, align 8
  %3 = alloca %class.anon.0, align 1
  store ptr %0, ptr %2, align 8
  %4 = load ptr, ptr %2, align 8
  %5 = getelementptr inbounds %struct.gmx_ana_pos_t, ptr %4, i32 0, i32 4
  %6 = load i32, ptr %5, align 8
  %7 = icmp sgt i32 %6, 0
  br i1 %7, label %8, label %9

8:                                                ; preds = %1
  br label %10

9:                                                ; preds = %1
  call void @"_ZZ30gmx_ana_pos_reserve_velocitiesP13gmx_ana_pos_tENK3$_0clEv"(ptr noundef nonnull align 1 dereferenceable(1) %3)
  br label %10

10:                                               ; preds = %9, %8
  %11 = load ptr, ptr %2, align 8
  %12 = getelementptr inbounds %struct.gmx_ana_pos_t, ptr %11, i32 0, i32 1
  %13 = load ptr, ptr %12, align 8
  %14 = icmp ne ptr %13, null
  br i1 %14, label %22, label %15

15:                                               ; preds = %10
  %16 = load ptr, ptr %2, align 8
  %17 = getelementptr inbounds %struct.gmx_ana_pos_t, ptr %16, i32 0, i32 1
  %18 = load ptr, ptr %2, align 8
  %19 = getelementptr inbounds %struct.gmx_ana_pos_t, ptr %18, i32 0, i32 4
  %20 = load i32, ptr %19, align 8
  %21 = sext i32 %20 to i64
  call void @_ZL13gmx_snew_implIA3_fEvPKcS2_iRPT_m(ptr noundef @.str.5, ptr noundef @.str.1, i32 noundef 117, ptr noundef nonnull align 8 dereferenceable(8) %17, i64 noundef %21)
  br label %22

22:                                               ; preds = %15, %10
  ret void
}

; Function Attrs: mustprogress nounwind uwtable
define linkonce_odr noundef i32 @_ZNK13gmx_ana_pos_t5countEv(ptr noundef nonnull align 8 dereferenceable(148) %0) #2 comdat align 2 {
  %2 = alloca ptr, align 8
  store ptr %0, ptr %2, align 8
  %3 = load ptr, ptr %2, align 8
  %4 = getelementptr inbounds %struct.gmx_ana_pos_t, ptr %3, i32 0, i32 3
  %5 = getelementptr inbounds %struct.gmx_ana_indexmap_t, ptr %4, i32 0, i32 3
  %6 = getelementptr inbounds %struct.t_blocka, ptr %5, i32 0, i32 0
  %7 = load i32, ptr %6, align 8
  ret i32 %7
}

; Function Attrs: mustprogress uwtable
define void @_Z16gmx_ana_pos_copyP13gmx_ana_pos_tS0_b(ptr noundef %0, ptr noundef %1, i1 noundef zeroext %2) #0 {
  %4 = alloca ptr, align 8
  %5 = alloca ptr, align 8
  %6 = alloca i8, align 1
  store ptr %0, ptr %4, align 8
  store ptr %1, ptr %5, align 8
  %7 = zext i1 %2 to i8
  store i8 %7, ptr %6, align 1
  %8 = load i8, ptr %6, align 1
  %9 = trunc i8 %8 to i1
  br i1 %9, label %10, label %28

10:                                               ; preds = %3
  %11 = load ptr, ptr %4, align 8
  %12 = load ptr, ptr %5, align 8
  %13 = call noundef i32 @_ZNK13gmx_ana_pos_t5countEv(ptr noundef nonnull align 8 dereferenceable(148) %12)
  call void @_Z19gmx_ana_pos_reserveP13gmx_ana_pos_tii(ptr noundef %11, i32 noundef %13, i32 noundef -1)
  %14 = load ptr, ptr %5, align 8
  %15 = getelementptr inbounds %struct.gmx_ana_pos_t, ptr %14, i32 0, i32 1
  %16 = load ptr, ptr %15, align 8
  %17 = icmp ne ptr %16, null
  br i1 %17, label %18, label %20

18:                                               ; preds = %10
  %19 = load ptr, ptr %4, align 8
  call void @_Z30gmx_ana_pos_reserve_velocitiesP13gmx_ana_pos_t(ptr noundef %19)
  br label %20

20:                                               ; preds = %18, %10
  %21 = load ptr, ptr %5, align 8
  %22 = getelementptr inbounds %struct.gmx_ana_pos_t, ptr %21, i32 0, i32 2
  %23 = load ptr, ptr %22, align 8
  %24 = icmp ne ptr %23, null
  br i1 %24, label %25, label %27

25:                                               ; preds = %20
  %26 = load ptr, ptr %4, align 8
  call void @_Z26gmx_ana_pos_reserve_forcesP13gmx_ana_pos_t(ptr noundef %26)
  br label %27

27:                                               ; preds = %25, %20
  br label %28

28:                                               ; preds = %27, %3
  %29 = load ptr, ptr %4, align 8
  %30 = getelementptr inbounds %struct.gmx_ana_pos_t, ptr %29, i32 0, i32 0
  %31 = load ptr, ptr %30, align 8
  %32 = load ptr, ptr %5, align 8
  %33 = getelementptr inbounds %struct.gmx_ana_pos_t, ptr %32, i32 0, i32 0
  %34 = load ptr, ptr %33, align 8
  %35 = load ptr, ptr %5, align 8
  %36 = call noundef i32 @_ZNK13gmx_ana_pos_t5countEv(ptr noundef nonnull align 8 dereferenceable(148) %35)
  %37 = sext i32 %36 to i64
  %38 = mul i64 %37, 12
  call void @llvm.memcpy.p0.p0.i64(ptr align 4 %31, ptr align 4 %34, i64 %38, i1 false)
  %39 = load ptr, ptr %4, align 8
  %40 = getelementptr inbounds %struct.gmx_ana_pos_t, ptr %39, i32 0, i32 1
  %41 = load ptr, ptr %40, align 8
  %42 = icmp ne ptr %41, null
  br i1 %42, label %43, label %54

43:                                               ; preds = %28
  %44 = load ptr, ptr %4, align 8
  %45 = getelementptr inbounds %struct.gmx_ana_pos_t, ptr %44, i32 0, i32 1
  %46 = load ptr, ptr %45, align 8
  %47 = load ptr, ptr %5, align 8
  %48 = getelementptr inbounds %struct.gmx_ana_pos_t, ptr %47, i32 0, i32 1
  %49 = load ptr, ptr %48, align 8
  %50 = load ptr, ptr %5, align 8
  %51 = call noundef i32 @_ZNK13gmx_ana_pos_t5countEv(ptr noundef nonnull align 8 dereferenceable(148) %50)
  %52 = sext i32 %51 to i64
  %53 = mul i64 %52, 12
  call void @llvm.memcpy.p0.p0.i64(ptr align 4 %46, ptr align 4 %49, i64 %53, i1 false)
  br label %54

54:                                               ; preds = %43, %28
  %55 = load ptr, ptr %4, align 8
  %56 = getelementptr inbounds %struct.gmx_ana_pos_t, ptr %55, i32 0, i32 2
  %57 = load ptr, ptr %56, align 8
  %58 = icmp ne ptr %57, null
  br i1 %58, label %59, label %70

59:                                               ; preds = %54
  %60 = load ptr, ptr %4, align 8
  %61 = getelementptr inbounds %struct.gmx_ana_pos_t, ptr %60, i32 0, i32 2
  %62 = load ptr, ptr %61, align 8
  %63 = load ptr, ptr %5, align 8
  %64 = getelementptr inbounds %struct.gmx_ana_pos_t, ptr %63, i32 0, i32 2
  %65 = load ptr, ptr %64, align 8
  %66 = load ptr, ptr %5, align 8
  %67 = call noundef i32 @_ZNK13gmx_ana_pos_t5countEv(ptr noundef nonnull align 8 dereferenceable(148) %66)
  %68 = sext i32 %67 to i64
  %69 = mul i64 %68, 12
  call void @llvm.memcpy.p0.p0.i64(ptr align 4 %62, ptr align 4 %65, i64 %69, i1 false)
  br label %70

70:                                               ; preds = %59, %54
  %71 = load ptr, ptr %4, align 8
  %72 = getelementptr inbounds %struct.gmx_ana_pos_t, ptr %71, i32 0, i32 3
  %73 = load ptr, ptr %5, align 8
  %74 = getelementptr inbounds %struct.gmx_ana_pos_t, ptr %73, i32 0, i32 3
  %75 = load i8, ptr %6, align 1
  %76 = trunc i8 %75 to i1
  call void @_Z21gmx_ana_indexmap_copyP18gmx_ana_indexmap_tS0_b(ptr noundef %72, ptr noundef %74, i1 noundef zeroext %76)
  ret void
}