; Function Attrs: mustprogress uwtable
define void @_Z16gmx_ana_pos_copyP13gmx_ana_pos_tS0_b(ptr noundef %0, ptr noundef %1, i1 noundef zeroext %2) local_unnamed_addr #0 {
  br i1 %2, label %4, label %_Z26gmx_ana_pos_reserve_forcesP13gmx_ana_pos_t.exit

4:                                                ; preds = %3
  %5 = getelementptr inbounds i8, ptr %1, i64 48
  %6 = load i32, ptr %5, align 8
  tail call void @_Z19gmx_ana_pos_reserveP13gmx_ana_pos_tii(ptr noundef %0, i32 noundef %6, i32 noundef -1)
  %7 = getelementptr inbounds i8, ptr %1, i64 8
  %8 = load ptr, ptr %7, align 8
  %.not = icmp eq ptr %8, null
  br i1 %.not, label %_Z30gmx_ana_pos_reserve_velocitiesP13gmx_ana_pos_t.exit, label %9

9:                                                ; preds = %4
  %10 = getelementptr inbounds i8, ptr %0, i64 144
  %11 = load i32, ptr %10, align 8
  %12 = icmp sgt i32 %11, 0
  br i1 %12, label %14, label %13

13:                                               ; preds = %9
  tail call void @_ZN3gmx8internal13assertHandlerEPKcS2_S2_S2_i(ptr noundef nonnull @.str.9, ptr noundef nonnull @.str.10, ptr noundef nonnull @"__PRETTY_FUNCTION__._ZZ30gmx_ana_pos_reserve_velocitiesP13gmx_ana_pos_tENK3$_0clEv", ptr noundef nonnull @.str.1, i32 noundef 114) #14
  unreachable

14:                                               ; preds = %9
  %15 = getelementptr inbounds i8, ptr %0, i64 8
  %16 = load ptr, ptr %15, align 8
  %.not.i = icmp eq ptr %16, null
  br i1 %.not.i, label %17, label %_Z30gmx_ana_pos_reserve_velocitiesP13gmx_ana_pos_t.exit

17:                                               ; preds = %14
  %18 = zext nneg i32 %11 to i64
  %19 = tail call noundef ptr @_Z11save_callocPKcS0_imm(ptr noundef nonnull @.str.5, ptr noundef nonnull @.str.1, i32 noundef 117, i64 noundef %18, i64 noundef 12)
  store ptr %19, ptr %15, align 8
  br label %_Z30gmx_ana_pos_reserve_velocitiesP13gmx_ana_pos_t.exit

_Z30gmx_ana_pos_reserve_velocitiesP13gmx_ana_pos_t.exit: ; preds = %17, %14, %4
  %20 = getelementptr inbounds i8, ptr %1, i64 16
  %21 = load ptr, ptr %20, align 8
  %.not21 = icmp eq ptr %21, null
  br i1 %.not21, label %_Z26gmx_ana_pos_reserve_forcesP13gmx_ana_pos_t.exit, label %22

22:                                               ; preds = %_Z30gmx_ana_pos_reserve_velocitiesP13gmx_ana_pos_t.exit
  %23 = getelementptr inbounds i8, ptr %0, i64 144
  %24 = load i32, ptr %23, align 8
  %25 = icmp sgt i32 %24, 0
  br i1 %25, label %27, label %26

26:                                               ; preds = %22
  tail call void @_ZN3gmx8internal13assertHandlerEPKcS2_S2_S2_i(ptr noundef nonnull @.str.9, ptr noundef nonnull @.str.10, ptr noundef nonnull @"__PRETTY_FUNCTION__._ZZ26gmx_ana_pos_reserve_forcesP13gmx_ana_pos_tENK3$_0clEv", ptr noundef nonnull @.str.1, i32 noundef 129) #14
  unreachable

27:                                               ; preds = %22
  %28 = getelementptr inbounds i8, ptr %0, i64 16
  %29 = load ptr, ptr %28, align 8
  %.not.i24 = icmp eq ptr %29, null
  br i1 %.not.i24, label %30, label %_Z26gmx_ana_pos_reserve_forcesP13gmx_ana_pos_t.exit

30:                                               ; preds = %27
  %31 = zext nneg i32 %24 to i64
  %32 = tail call noundef ptr @_Z11save_callocPKcS0_imm(ptr noundef nonnull @.str.6, ptr noundef nonnull @.str.1, i32 noundef 132, i64 noundef %31, i64 noundef 12)
  store ptr %32, ptr %28, align 8
  br label %_Z26gmx_ana_pos_reserve_forcesP13gmx_ana_pos_t.exit

_Z26gmx_ana_pos_reserve_forcesP13gmx_ana_pos_t.exit: ; preds = %30, %27, %_Z30gmx_ana_pos_reserve_velocitiesP13gmx_ana_pos_t.exit, %3
  %33 = load ptr, ptr %0, align 8
  %34 = load ptr, ptr %1, align 8
  %35 = getelementptr inbounds i8, ptr %1, i64 48
  %36 = load i32, ptr %35, align 8
  %37 = sext i32 %36 to i64
  %38 = mul nsw i64 %37, 12
  tail call void @llvm.memcpy.p0.p0.i64(ptr align 4 %33, ptr align 4 %34, i64 %38, i1 false)
  %39 = getelementptr inbounds i8, ptr %0, i64 8
  %40 = load ptr, ptr %39, align 8
  %.not22 = icmp eq ptr %40, null
  br i1 %.not22, label %47, label %41

41:                                               ; preds = %_Z26gmx_ana_pos_reserve_forcesP13gmx_ana_pos_t.exit
  %42 = getelementptr inbounds i8, ptr %1, i64 8
  %43 = load ptr, ptr %42, align 8
  %44 = load i32, ptr %35, align 8
  %45 = sext i32 %44 to i64
  %46 = mul nsw i64 %45, 12
  tail call void @llvm.memcpy.p0.p0.i64(ptr nonnull align 4 %40, ptr align 4 %43, i64 %46, i1 false)
  br label %47

47:                                               ; preds = %41, %_Z26gmx_ana_pos_reserve_forcesP13gmx_ana_pos_t.exit
  %48 = getelementptr inbounds i8, ptr %0, i64 16
  %49 = load ptr, ptr %48, align 8
  %.not23 = icmp eq ptr %49, null
  br i1 %.not23, label %56, label %50

50:                                               ; preds = %47
  %51 = getelementptr inbounds i8, ptr %1, i64 16
  %52 = load ptr, ptr %51, align 8
  %53 = load i32, ptr %35, align 8
  %54 = sext i32 %53 to i64
  %55 = mul nsw i64 %54, 12
  tail call void @llvm.memcpy.p0.p0.i64(ptr nonnull align 4 %49, ptr align 4 %52, i64 %55, i1 false)
  br label %56

56:                                               ; preds = %50, %47
  %57 = getelementptr inbounds i8, ptr %0, i64 24
  %58 = getelementptr inbounds i8, ptr %1, i64 24
  tail call void @_Z21gmx_ana_indexmap_copyP18gmx_ana_indexmap_tS0_b(ptr noundef nonnull %57, ptr noundef nonnull %58, i1 noundef zeroext %2)
  ret void
}